target datalayout = "e-m:e-p270:32:32-p271:32:32-p272:64:64-i64:64-i128:128-f80:128-n8:16:32:64-S128"
target triple = "x86_64-pc-linux-gnu"

%struct.hb_blob_t = type { %struct.hb_object_header_t, ptr, i32, i32, ptr, ptr }
%struct.hb_object_header_t = type { %struct.hb_reference_count_t, %struct.hb_atomic_int_t, %struct.hb_atomic_ptr_t }
%struct.hb_reference_count_t = type { %struct.hb_atomic_int_t }
%struct.hb_atomic_int_t = type { i32 }
%struct.hb_atomic_ptr_t = type { ptr }
%struct.hb_user_data_array_t = type { %struct.hb_mutex_t, %struct.hb_lockable_set_t }
%struct.hb_mutex_t = type { [40 x i8] }
%struct.hb_lockable_set_t = type { %struct.hb_vector_t }
%struct.hb_vector_t = type { i32, i32, ptr }

; Function Attrs: mustprogress nounwind uwtable
define linkonce_odr hidden noundef i32 @_ZNK15hb_atomic_int_t11get_relaxedEv(ptr noundef nonnull align 4 dereferenceable(4) %0) #1 comdat align 2 {
  %2 = alloca ptr, align 8
  %3 = alloca i32, align 4
  store ptr %0, ptr %2, align 8
  %4 = load ptr, ptr %2, align 8
  %5 = getelementptr inbounds %struct.hb_atomic_int_t, ptr %4, i32 0, i32 0
  %6 = load atomic i32, ptr %5 monotonic, align 4
  store i32 %6, ptr %3, align 4
  %7 = load i32, ptr %3, align 4
  ret i32 %7
}

; Function Attrs: mustprogress nounwind uwtable
define linkonce_odr hidden void @_ZN11hb_vector_tIN20hb_user_data_array_t19hb_user_data_item_tELb0EE4initEv(ptr noundef nonnull align 8 dereferenceable(16) %0) #1 comdat align 2 {
  %2 = alloca ptr, align 8
  store ptr %0, ptr %2, align 8
  %3 = load ptr, ptr %2, align 8
  %4 = getelementptr inbounds %struct.hb_vector_t, ptr %3, i32 0, i32 1
  store i32 0, ptr %4, align 4
  %5 = getelementptr inbounds %struct.hb_vector_t, ptr %3, i32 0, i32 0
  store i32 0, ptr %5, align 8
  %6 = getelementptr inbounds %struct.hb_vector_t, ptr %3, i32 0, i32 2
  store ptr null, ptr %6, align 8
  ret void
}

; Function Attrs: mustprogress uwtable
define linkonce_odr hidden noundef i32 @_ZNK15hb_atomic_int_tcviEv(ptr noundef nonnull align 4 dereferenceable(4) %0) #0 comdat align 2 {
  %2 = alloca ptr, align 8
  store ptr %0, ptr %2, align 8
  %3 = load ptr, ptr %2, align 8
  %4 = call noundef i32 @_ZNK15hb_atomic_int_t11get_relaxedEv(ptr noundef nonnull align 4 dereferenceable(4) %3)
  ret i32 %4
}

; Function Attrs: mustprogress nounwind uwtable
define linkonce_odr hidden void @_ZN10hb_mutex_t4finiEv(ptr noundef nonnull align 8 dereferenceable(40) %0) #1 comdat align 2 {
  %2 = alloca ptr, align 8
  store ptr %0, ptr %2, align 8
  %3 = load ptr, ptr %2, align 8
  %4 = getelementptr inbounds %struct.hb_mutex_t, ptr %3, i32 0, i32 0
  %5 = getelementptr inbounds [40 x i8], ptr %4, i64 0, i64 0
  %6 = call i32 @pthread_mutex_destroy(ptr noundef %5) #14
  ret void
}

; Function Attrs: mustprogress nounwind uwtable
define internal noundef zeroext i1 @_ZL28_hb_atomic_ptr_impl_cmplexchPPKvS0_S0_(ptr noundef %0, ptr noundef %1, ptr noundef %2) #1 {
  %4 = alloca ptr, align 8
  %5 = alloca ptr, align 8
  %6 = alloca ptr, align 8
  %7 = alloca ptr, align 8
  %8 = alloca ptr, align 8
  %9 = alloca i8, align 1
  store ptr %0, ptr %4, align 8
  store ptr %1, ptr %5, align 8
  store ptr %2, ptr %6, align 8
  %10 = load ptr, ptr %5, align 8
  store ptr %10, ptr %7, align 8
  %11 = load ptr, ptr %4, align 8
  %12 = load ptr, ptr %6, align 8
  store ptr %12, ptr %8, align 8
  %13 = load i64, ptr %7, align 8
  %14 = load i64, ptr %8, align 8
  %15 = cmpxchg weak ptr %11, i64 %13, i64 %14 acq_rel monotonic, align 8
  %16 = extractvalue { i64, i1 } %15, 0
  %17 = extractvalue { i64, i1 } %15, 1
  br i1 %17, label %19, label %18

18:                                               ; preds = %3
  store i64 %16, ptr %7, align 8
  br label %19

19:                                               ; preds = %18, %3
  %20 = zext i1 %17 to i8
  store i8 %20, ptr %9, align 1
  %21 = load i8, ptr %9, align 1
  %22 = trunc i8 %21 to i1
  ret i1 %22
}

; Function Attrs: mustprogress nounwind uwtable
define linkonce_odr hidden void @_ZN17hb_lockable_set_tIN20hb_user_data_array_t19hb_user_data_item_tE10hb_mutex_tE4initEv(ptr noundef nonnull align 8 dereferenceable(16) %0) #1 comdat align 2 {
  %2 = alloca ptr, align 8
  store ptr %0, ptr %2, align 8
  %3 = load ptr, ptr %2, align 8
  %4 = getelementptr inbounds %struct.hb_lockable_set_t, ptr %3, i32 0, i32 0
  call void @_ZN11hb_vector_tIN20hb_user_data_array_t19hb_user_data_item_tELb0EE4initEv(ptr noundef nonnull align 8 dereferenceable(16) %4)
  ret void
}

; Function Attrs: mustprogress nounwind uwtable
define linkonce_odr hidden void @_ZN10hb_mutex_t4initEv(ptr noundef nonnull align 8 dereferenceable(40) %0) #1 comdat align 2 {
  %2 = alloca ptr, align 8
  store ptr %0, ptr %2, align 8
  %3 = load ptr, ptr %2, align 8
  %4 = getelementptr inbounds %struct.hb_mutex_t, ptr %3, i32 0, i32 0
  %5 = getelementptr inbounds [40 x i8], ptr %4, i64 0, i64 0
  %6 = call i32 @pthread_mutex_init(ptr noundef %5, ptr noundef null) #14
  ret void
}

; Function Attrs: mustprogress uwtable
define linkonce_odr hidden noundef i32 @_ZNK20hb_reference_count_t11get_relaxedEv(ptr noundef nonnull align 4 dereferenceable(4) %0) #0 comdat align 2 {
  %2 = alloca ptr, align 8
  store ptr %0, ptr %2, align 8
  %3 = load ptr, ptr %2, align 8
  %4 = getelementptr inbounds %struct.hb_reference_count_t, ptr %3, i32 0, i32 0
  %5 = call noundef i32 @_ZNK15hb_atomic_int_tcviEv(ptr noundef nonnull align 4 dereferenceable(4) %4)
  ret i32 %5
}

; Function Attrs: mustprogress uwtable
define linkonce_odr hidden void @_ZN20hb_user_data_array_t4finiEv(ptr noundef nonnull align 8 dereferenceable(56) %0) #0 comdat align 2 {
  %2 = alloca ptr, align 8
  store ptr %0, ptr %2, align 8
  %3 = load ptr, ptr %2, align 8
  %4 = getelementptr inbounds %struct.hb_user_data_array_t, ptr %3, i32 0, i32 1
  %5 = getelementptr inbounds %struct.hb_user_data_array_t, ptr %3, i32 0, i32 0
  call void @_ZN17hb_lockable_set_tIN20hb_user_data_array_t19hb_user_data_item_tE10hb_mutex_tE4finiERS2_(ptr noundef nonnull align 8 dereferenceable(16) %4, ptr noundef nonnull align 8 dereferenceable(40) %5)
  %6 = getelementptr inbounds %struct.hb_user_data_array_t, ptr %3, i32 0, i32 0
  call void @_ZN10hb_mutex_t4finiEv(ptr noundef nonnull align 8 dereferenceable(40) %6)
  ret void
}

; Function Attrs: mustprogress uwtable
define linkonce_odr hidden noundef zeroext i1 @_ZNK15hb_atomic_ptr_tI20hb_user_data_array_tE7cmpexchEPKS0_PS0_(ptr noundef nonnull align 8 dereferenceable(8) %0, ptr noundef %1, ptr noundef %2) #0 comdat align 2 {
  %4 = alloca ptr, align 8
  %5 = alloca ptr, align 8
  %6 = alloca ptr, align 8
  store ptr %0, ptr %4, align 8
  store ptr %1, ptr %5, align 8
  store ptr %2, ptr %6, align 8
  %7 = load ptr, ptr %4, align 8
  %8 = getelementptr inbounds %struct.hb_atomic_ptr_t, ptr %7, i32 0, i32 0
  %9 = load ptr, ptr %5, align 8
  %10 = load ptr, ptr %6, align 8
  %11 = call noundef zeroext i1 @_ZL28_hb_atomic_ptr_impl_cmplexchPPKvS0_S0_(ptr noundef %8, ptr noundef %9, ptr noundef %10)
  ret i1 %11
}

; Function Attrs: mustprogress uwtable
define linkonce_odr hidden void @_ZN20hb_user_data_array_t4initEv(ptr noundef nonnull align 8 dereferenceable(56) %0) #0 comdat align 2 {
  %2 = alloca ptr, align 8
  store ptr %0, ptr %2, align 8
  %3 = load ptr, ptr %2, align 8
  %4 = getelementptr inbounds %struct.hb_user_data_array_t, ptr %3, i32 0, i32 0
  call void @_ZN10hb_mutex_t4initEv(ptr noundef nonnull align 8 dereferenceable(40) %4)
  %5 = getelementptr inbounds %struct.hb_user_data_array_t, ptr %3, i32 0, i32 1
  call void @_ZN17hb_lockable_set_tIN20hb_user_data_array_t19hb_user_data_item_tE10hb_mutex_tE4initEv(ptr noundef nonnull align 8 dereferenceable(16) %5)
  ret void
}

; Function Attrs: mustprogress nounwind uwtable
define linkonce_odr hidden noundef ptr @_ZNK15hb_atomic_ptr_tI20hb_user_data_array_tE11get_acquireEv(ptr noundef nonnull align 8 dereferenceable(8) %0) #1 comdat align 2 {
  %2 = alloca ptr, align 8
  %3 = alloca ptr, align 8
  store ptr %0, ptr %2, align 8
  %4 = load ptr, ptr %2, align 8
  %5 = getelementptr inbounds %struct.hb_atomic_ptr_t, ptr %4, i32 0, i32 0
  %6 = load atomic i64, ptr %5 acquire, align 8
  store i64 %6, ptr %3, align 8
  %7 = load ptr, ptr %3, align 8
  ret ptr %7
}

; Function Attrs: mustprogress uwtable
define linkonce_odr hidden noundef zeroext i1 @_ZNK18hb_object_header_t8is_inertEv(ptr noundef nonnull align 8 dereferenceable(16) %0) #0 comdat align 2 {
  %2 = alloca ptr, align 8
  store ptr %0, ptr %2, align 8
  %3 = load ptr, ptr %2, align 8
  %4 = getelementptr inbounds %struct.hb_object_header_t, ptr %3, i32 0, i32 0
  %5 = call noundef i32 @_ZNK20hb_reference_count_t11get_relaxedEv(ptr noundef nonnull align 4 dereferenceable(4) %4)
  %6 = icmp ne i32 %5, 0
  %7 = xor i1 %6, true
  ret i1 %7
}

; Function Attrs: mustprogress uwtable
define internal noundef zeroext i1 @_ZL23hb_object_set_user_dataI9hb_blob_tEbPT_P18hb_user_data_key_tPvPFvS5_Ei(ptr noundef %0, ptr noundef %1, ptr noundef %2, ptr noundef %3, i32 noundef %4) #0 {
  %6 = alloca i1, align 1
  %7 = alloca ptr, align 8
  %8 = alloca ptr, align 8
  %9 = alloca ptr, align 8
  %10 = alloca ptr, align 8
  %11 = alloca i32, align 4
  %12 = alloca ptr, align 8
  store ptr %0, ptr %7, align 8
  store ptr %1, ptr %8, align 8
  store ptr %2, ptr %9, align 8
  store ptr %3, ptr %10, align 8
  store i32 %4, ptr %11, align 4
  %13 = load ptr, ptr %7, align 8
  %14 = icmp ne ptr %13, null
  br i1 %14, label %15, label %19

15:                                               ; preds = %5
  %16 = load ptr, ptr %7, align 8
  %17 = getelementptr inbounds %struct.hb_blob_t, ptr %16, i32 0, i32 0
  %18 = call noundef zeroext i1 @_ZNK18hb_object_header_t8is_inertEv(ptr noundef nonnull align 8 dereferenceable(16) %17)
  br i1 %18, label %19, label %20

19:                                               ; preds = %15, %5
  store i1 false, ptr %6, align 1
  br label %51

20:                                               ; preds = %15
  br label %21

21:                                               ; preds = %40, %20
  %22 = load ptr, ptr %7, align 8
  %23 = getelementptr inbounds %struct.hb_blob_t, ptr %22, i32 0, i32 0
  %24 = getelementptr inbounds %struct.hb_object_header_t, ptr %23, i32 0, i32 2
  %25 = call noundef ptr @_ZNK15hb_atomic_ptr_tI20hb_user_data_array_tE11get_acquireEv(ptr noundef nonnull align 8 dereferenceable(8) %24)
  store ptr %25, ptr %12, align 8
  %26 = load ptr, ptr %12, align 8
  %27 = icmp ne ptr %26, null
  br i1 %27, label %44, label %28

28:                                               ; preds = %21
  %29 = call noalias ptr @calloc(i64 noundef 56, i64 noundef 1) #12
  store ptr %29, ptr %12, align 8
  %30 = load ptr, ptr %12, align 8
  %31 = icmp ne ptr %30, null
  br i1 %31, label %33, label %32

32:                                               ; preds = %28
  store i1 false, ptr %6, align 1
  br label %51

33:                                               ; preds = %28
  %34 = load ptr, ptr %12, align 8
  call void @_ZN20hb_user_data_array_t4initEv(ptr noundef nonnull align 8 dereferenceable(56) %34)
  %35 = load ptr, ptr %7, align 8
  %36 = getelementptr inbounds %struct.hb_blob_t, ptr %35, i32 0, i32 0
  %37 = getelementptr inbounds %struct.hb_object_header_t, ptr %36, i32 0, i32 2
  %38 = load ptr, ptr %12, align 8
  %39 = call noundef zeroext i1 @_ZNK15hb_atomic_ptr_tI20hb_user_data_array_tE7cmpexchEPKS0_PS0_(ptr noundef nonnull align 8 dereferenceable(8) %37, ptr noundef null, ptr noundef %38)
  br i1 %39, label %43, label %40

40:                                               ; preds = %33
  %41 = load ptr, ptr %12, align 8
  call void @_ZN20hb_user_data_array_t4finiEv(ptr noundef nonnull align 8 dereferenceable(56) %41)
  %42 = load ptr, ptr %12, align 8
  call void @free(ptr noundef %42) #14
  br label %21

43:                                               ; preds = %33
  br label %44

44:                                               ; preds = %43, %21
  %45 = load ptr, ptr %12, align 8
  %46 = load ptr, ptr %8, align 8
  %47 = load ptr, ptr %9, align 8
  %48 = load ptr, ptr %10, align 8
  %49 = load i32, ptr %11, align 4
  %50 = call noundef zeroext i1 @_ZN20hb_user_data_array_t3setEP18hb_user_data_key_tPvPFvS2_Ei(ptr noundef nonnull align 8 dereferenceable(56) %45, ptr noundef %46, ptr noundef %47, ptr noundef %48, i32 noundef %49)
  store i1 %50, ptr %6, align 1
  br label %51

51:                                               ; preds = %44, %32, %19
  %52 = load i1, ptr %6, align 1
  ret i1 %52
}

; Function Attrs: mustprogress uwtable
define hidden i32 @hb_blob_set_user_data(ptr noundef %0, ptr noundef %1, ptr noundef %2, ptr noundef %3, i32 noundef %4) #0 {
  %6 = alloca ptr, align 8
  %7 = alloca ptr, align 8
  %8 = alloca ptr, align 8
  %9 = alloca ptr, align 8
  %10 = alloca i32, align 4
  store ptr %0, ptr %6, align 8
  store ptr %1, ptr %7, align 8
  store ptr %2, ptr %8, align 8
  store ptr %3, ptr %9, align 8
  store i32 %4, ptr %10, align 4
  %11 = load ptr, ptr %6, align 8
  %12 = load ptr, ptr %7, align 8
  %13 = load ptr, ptr %8, align 8
  %14 = load ptr, ptr %9, align 8
  %15 = load i32, ptr %10, align 4
  %16 = call noundef zeroext i1 @_ZL23hb_object_set_user_dataI9hb_blob_tEbPT_P18hb_user_data_key_tPvPFvS5_Ei(ptr noundef %11, ptr noundef %12, ptr noundef %13, ptr noundef %14, i32 noundef %15)
  %17 = zext i1 %16 to i32
  ret i32 %17
}